target datalayout = "e-m:e-p270:32:32-p271:32:32-p272:64:64-i64:64-i128:128-f80:128-n8:16:32:64-S128"
target triple = "x86_64-pc-linux-gnu"

%struct.regmatch_t = type { i32, i32 }
%struct.kwsmatch = type { i32, [1 x i64], [1 x i64] }
%struct.s_mmfile = type { ptr, i64 }

; Function Attrs: inlinehint nounwind uwtable
define internal i32 @regexec_buf(ptr noundef %0, ptr noundef %1, i64 noundef %2, i64 noundef %3, ptr noundef %4, i32 noundef %5) #7 {
  %7 = alloca ptr, align 8
  %8 = alloca ptr, align 8
  %9 = alloca i64, align 8
  %10 = alloca i64, align 8
  %11 = alloca ptr, align 8
  %12 = alloca i32, align 4
  store ptr %0, ptr %7, align 8, !tbaa !27
  store ptr %1, ptr %8, align 8, !tbaa !24
  store i64 %2, ptr %9, align 8, !tbaa !60
  store i64 %3, ptr %10, align 8, !tbaa !60
  store ptr %4, ptr %11, align 8, !tbaa !32
  store i32 %5, ptr %12, align 4, !tbaa !26
  %13 = load ptr, ptr %11, align 8, !tbaa !32
  %14 = getelementptr inbounds %struct.regmatch_t, ptr %13, i64 0
  %15 = getelementptr inbounds nuw %struct.regmatch_t, ptr %14, i32 0, i32 0
  store i32 0, ptr %15, align 4, !tbaa !63
  %16 = load i64, ptr %9, align 8, !tbaa !60
  %17 = trunc i64 %16 to i32
  %18 = load ptr, ptr %11, align 8, !tbaa !32
  %19 = getelementptr inbounds %struct.regmatch_t, ptr %18, i64 0
  %20 = getelementptr inbounds nuw %struct.regmatch_t, ptr %19, i32 0, i32 1
  store i32 %17, ptr %20, align 4, !tbaa !65
  %21 = load ptr, ptr %7, align 8, !tbaa !27
  %22 = load ptr, ptr %8, align 8, !tbaa !24
  %23 = load i64, ptr %10, align 8, !tbaa !60
  %24 = load ptr, ptr %11, align 8, !tbaa !32
  %25 = load i32, ptr %12, align 4, !tbaa !26
  %26 = or i32 %25, 4
  %27 = call i32 @regexec(ptr noundef %21, ptr noundef %22, i64 noundef %23, ptr noundef %24, i32 noundef %26)
  ret i32 %27
}

; Function Attrs: nounwind uwtable
define internal i32 @contains(ptr noundef %0, ptr noundef %1, ptr noundef %2, i32 noundef %3) #0 {
  %5 = alloca i32, align 4
  %6 = alloca ptr, align 8
  %7 = alloca ptr, align 8
  %8 = alloca ptr, align 8
  %9 = alloca i32, align 4
  %10 = alloca i32, align 4
  %11 = alloca i64, align 8
  %12 = alloca ptr, align 8
  %13 = alloca %struct.regmatch_t, align 4
  %14 = alloca i32, align 4
  %15 = alloca i32, align 4
  %16 = alloca %struct.kwsmatch, align 8
  %17 = alloca i64, align 8
  store ptr %0, ptr %6, align 8, !tbaa !35
  store ptr %1, ptr %7, align 8, !tbaa !27
  store ptr %2, ptr %8, align 8, !tbaa !29
  store i32 %3, ptr %9, align 4, !tbaa !26
  call void @llvm.lifetime.start.p0(i64 4, ptr %10) #9
  store i32 0, ptr %10, align 4, !tbaa !26
  call void @llvm.lifetime.start.p0(i64 8, ptr %11) #9
  %18 = load ptr, ptr %6, align 8, !tbaa !35
  %19 = getelementptr inbounds nuw %struct.s_mmfile, ptr %18, i32 0, i32 1
  %20 = load i64, ptr %19, align 8, !tbaa !66
  store i64 %20, ptr %11, align 8, !tbaa !60
  call void @llvm.lifetime.start.p0(i64 8, ptr %12) #9
  %21 = load ptr, ptr %6, align 8, !tbaa !35
  %22 = getelementptr inbounds nuw %struct.s_mmfile, ptr %21, i32 0, i32 0
  %23 = load ptr, ptr %22, align 8, !tbaa !68
  store ptr %23, ptr %12, align 8, !tbaa !24
  %24 = load ptr, ptr %7, align 8, !tbaa !27
  %25 = icmp ne ptr %24, null
  br i1 %25, label %26, label %82

26:                                               ; preds = %4
  call void @llvm.lifetime.start.p0(i64 8, ptr %13) #9
  call void @llvm.lifetime.start.p0(i64 4, ptr %14) #9
  store i32 0, ptr %14, align 4, !tbaa !26
  br label %27

27:                                               ; preds = %77, %26
  %28 = load i64, ptr %11, align 8, !tbaa !60
  %29 = icmp ne i64 %28, 0
  br i1 %29, label %30, label %38

30:                                               ; preds = %27
  %31 = load ptr, ptr %7, align 8, !tbaa !27
  %32 = load ptr, ptr %12, align 8, !tbaa !24
  %33 = load i64, ptr %11, align 8, !tbaa !60
  %34 = load i32, ptr %14, align 4, !tbaa !26
  %35 = call i32 @regexec_buf(ptr noundef %31, ptr noundef %32, i64 noundef %33, i64 noundef 1, ptr noundef %13, i32 noundef %34)
  %36 = icmp ne i32 %35, 0
  %37 = xor i1 %36, true
  br label %38

38:                                               ; preds = %30, %27
  %39 = phi i1 [ false, %27 ], [ %37, %30 ]
  br i1 %39, label %40, label %78

40:                                               ; preds = %38
  %41 = load i32, ptr %14, align 4, !tbaa !26
  %42 = or i32 %41, 1
  store i32 %42, ptr %14, align 4, !tbaa !26
  %43 = getelementptr inbounds nuw %struct.regmatch_t, ptr %13, i32 0, i32 1
  %44 = load i32, ptr %43, align 4, !tbaa !65
  %45 = load ptr, ptr %12, align 8, !tbaa !24
  %46 = sext i32 %44 to i64
  %47 = getelementptr inbounds i8, ptr %45, i64 %46
  store ptr %47, ptr %12, align 8, !tbaa !24
  %48 = getelementptr inbounds nuw %struct.regmatch_t, ptr %13, i32 0, i32 1
  %49 = load i32, ptr %48, align 4, !tbaa !65
  %50 = sext i32 %49 to i64
  %51 = load i64, ptr %11, align 8, !tbaa !60
  %52 = sub i64 %51, %50
  store i64 %52, ptr %11, align 8, !tbaa !60
  %53 = load i64, ptr %11, align 8, !tbaa !60
  %54 = icmp ne i64 %53, 0
  br i1 %54, label %55, label %66

55:                                               ; preds = %40
  %56 = getelementptr inbounds nuw %struct.regmatch_t, ptr %13, i32 0, i32 0
  %57 = load i32, ptr %56, align 4, !tbaa !63
  %58 = getelementptr inbounds nuw %struct.regmatch_t, ptr %13, i32 0, i32 1
  %59 = load i32, ptr %58, align 4, !tbaa !65
  %60 = icmp eq i32 %57, %59
  br i1 %60, label %61, label %66

61:                                               ; preds = %55
  %62 = load ptr, ptr %12, align 8, !tbaa !24
  %63 = getelementptr inbounds nuw i8, ptr %62, i32 1
  store ptr %63, ptr %12, align 8, !tbaa !24
  %64 = load i64, ptr %11, align 8, !tbaa !60
  %65 = add i64 %64, -1
  store i64 %65, ptr %11, align 8, !tbaa !60
  br label %66

66:                                               ; preds = %61, %55, %40
  %67 = load i32, ptr %10, align 4, !tbaa !26
  %68 = add i32 %67, 1
  store i32 %68, ptr %10, align 4, !tbaa !26
  %69 = load i32, ptr %9, align 4, !tbaa !26
  %70 = icmp ne i32 %69, 0
  br i1 %70, label %71, label %77

71:                                               ; preds = %66
  %72 = load i32, ptr %10, align 4, !tbaa !26
  %73 = load i32, ptr %9, align 4, !tbaa !26
  %74 = icmp eq i32 %72, %73
  br i1 %74, label %75, label %77

75:                                               ; preds = %71
  %76 = load i32, ptr %10, align 4, !tbaa !26
  store i32 %76, ptr %5, align 4
  store i32 1, ptr %15, align 4
  br label %79

77:                                               ; preds = %71, %66
  br label %27, !llvm.loop !69

78:                                               ; preds = %38
  store i32 0, ptr %15, align 4
  br label %79

79:                                               ; preds = %78, %75
  call void @llvm.lifetime.end.p0(i64 4, ptr %14) #9
  call void @llvm.lifetime.end.p0(i64 8, ptr %13) #9
  %80 = load i32, ptr %15, align 4
  switch i32 %80, label %126 [
    i32 0, label %81
  ]

81:                                               ; preds = %79
  br label %124

82:                                               ; preds = %4
  br label %83

83:                                               ; preds = %122, %82
  %84 = load i64, ptr %11, align 8, !tbaa !60
  %85 = icmp ne i64 %84, 0
  br i1 %85, label %86, label %123

86:                                               ; preds = %83
  call void @llvm.lifetime.start.p0(i64 24, ptr %16) #9
  call void @llvm.lifetime.start.p0(i64 8, ptr %17) #9
  %87 = load ptr, ptr %8, align 8, !tbaa !29
  %88 = load ptr, ptr %12, align 8, !tbaa !24
  %89 = load i64, ptr %11, align 8, !tbaa !60
  %90 = call i64 @kwsexec(ptr noundef %87, ptr noundef %88, i64 noundef %89, ptr noundef %16)
  store i64 %90, ptr %17, align 8, !tbaa !60
  %91 = load i64, ptr %17, align 8, !tbaa !60
  %92 = icmp eq i64 %91, -1
  br i1 %92, label %93, label %94

93:                                               ; preds = %86
  store i32 5, ptr %15, align 4
  br label %120

94:                                               ; preds = %86
  %95 = load i64, ptr %17, align 8, !tbaa !60
  %96 = getelementptr inbounds nuw %struct.kwsmatch, ptr %16, i32 0, i32 2
  %97 = getelementptr inbounds [1 x i64], ptr %96, i64 0, i64 0
  %98 = load i64, ptr %97, align 8, !tbaa !60
  %99 = add i64 %95, %98
  %100 = load i64, ptr %11, align 8, !tbaa !60
  %101 = sub i64 %100, %99
  store i64 %101, ptr %11, align 8, !tbaa !60
  %102 = load i64, ptr %17, align 8, !tbaa !60
  %103 = getelementptr inbounds nuw %struct.kwsmatch, ptr %16, i32 0, i32 2
  %104 = getelementptr inbounds [1 x i64], ptr %103, i64 0, i64 0
  %105 = load i64, ptr %104, align 8, !tbaa !60
  %106 = add i64 %102, %105
  %107 = load ptr, ptr %12, align 8, !tbaa !24
  %108 = getelementptr inbounds nuw i8, ptr %107, i64 %106
  store ptr %108, ptr %12, align 8, !tbaa !24
  %109 = load i32, ptr %10, align 4, !tbaa !26
  %110 = add i32 %109, 1
  store i32 %110, ptr %10, align 4, !tbaa !26
  %111 = load i32, ptr %9, align 4, !tbaa !26
  %112 = icmp ne i32 %111, 0
  br i1 %112, label %113, label %119

113:                                              ; preds = %94
  %114 = load i32, ptr %10, align 4, !tbaa !26
  %115 = load i32, ptr %9, align 4, !tbaa !26
  %116 = icmp eq i32 %114, %115
  br i1 %116, label %117, label %119

117:                                              ; preds = %113
  %118 = load i32, ptr %10, align 4, !tbaa !26
  store i32 %118, ptr %5, align 4
  store i32 1, ptr %15, align 4
  br label %120

119:                                              ; preds = %113, %94
  store i32 0, ptr %15, align 4
  br label %120

120:                                              ; preds = %119, %117, %93
  call void @llvm.lifetime.end.p0(i64 8, ptr %17) #9
  call void @llvm.lifetime.end.p0(i64 24, ptr %16) #9
  %121 = load i32, ptr %15, align 4
  switch i32 %121, label %126 [
    i32 0, label %122
    i32 5, label %123
  ]

122:                                              ; preds = %120
  br label %83, !llvm.loop !70

123:                                              ; preds = %120, %83
  br label %124

124:                                              ; preds = %123, %81
  %125 = load i32, ptr %10, align 4, !tbaa !26
  store i32 %125, ptr %5, align 4
  store i32 1, ptr %15, align 4
  br label %126

126:                                              ; preds = %124, %120, %79
  call void @llvm.lifetime.end.p0(i64 8, ptr %12) #9
  call void @llvm.lifetime.end.p0(i64 8, ptr %11) #9
  call void @llvm.lifetime.end.p0(i64 4, ptr %10) #9
  %127 = load i32, ptr %5, align 4
  ret i32 %127
}

; Function Attrs: nounwind uwtable
define internal i32 @has_changes(ptr noundef %0, ptr noundef %1, ptr noundef %2, ptr noundef %3, ptr noundef %4) #0 {
  %6 = alloca ptr, align 8
  %7 = alloca ptr, align 8
  %8 = alloca ptr, align 8
  %9 = alloca ptr, align 8
  %10 = alloca ptr, align 8
  %11 = alloca i32, align 4
  %12 = alloca i32, align 4
  store ptr %0, ptr %6, align 8, !tbaa !35
  store ptr %1, ptr %7, align 8, !tbaa !35
  store ptr %2, ptr %8, align 8, !tbaa !4
  store ptr %3, ptr %9, align 8, !tbaa !27
  store ptr %4, ptr %10, align 8, !tbaa !29
  call void @llvm.lifetime.start.p0(i64 4, ptr %11) #9
  %13 = load ptr, ptr %6, align 8, !tbaa !35
  %14 = icmp ne ptr %13, null
  br i1 %14, label %15, label %20

15:                                               ; preds = %5
  %16 = load ptr, ptr %6, align 8, !tbaa !35
  %17 = load ptr, ptr %9, align 8, !tbaa !27
  %18 = load ptr, ptr %10, align 8, !tbaa !29
  %19 = call i32 @contains(ptr noundef %16, ptr noundef %17, ptr noundef %18, i32 noundef 0)
  br label %21

20:                                               ; preds = %5
  br label %21

21:                                               ; preds = %20, %15
  %22 = phi i32 [ %19, %15 ], [ 0, %20 ]
  store i32 %22, ptr %11, align 4, !tbaa !26
  call void @llvm.lifetime.start.p0(i64 4, ptr %12) #9
  %23 = load ptr, ptr %7, align 8, !tbaa !35
  %24 = icmp ne ptr %23, null
  br i1 %24, label %25, label %32

25:                                               ; preds = %21
  %26 = load ptr, ptr %7, align 8, !tbaa !35
  %27 = load ptr, ptr %9, align 8, !tbaa !27
  %28 = load ptr, ptr %10, align 8, !tbaa !29
  %29 = load i32, ptr %11, align 4, !tbaa !26
  %30 = add i32 %29, 1
  %31 = call i32 @contains(ptr noundef %26, ptr noundef %27, ptr noundef %28, i32 noundef %30)
  br label %33

32:                                               ; preds = %21
  br label %33

33:                                               ; preds = %32, %25
  %34 = phi i32 [ %31, %25 ], [ 0, %32 ]
  store i32 %34, ptr %12, align 4, !tbaa !26
  %35 = load i32, ptr %11, align 4, !tbaa !26
  %36 = load i32, ptr %12, align 4, !tbaa !26
  %37 = icmp ne i32 %35, %36
  %38 = zext i1 %37 to i32
  call void @llvm.lifetime.end.p0(i64 4, ptr %12) #9
  call void @llvm.lifetime.end.p0(i64 4, ptr %11) #9
  ret i32 %38
}