; Function Attrs: nounwind uwtable
define internal range(i32 0, 2) i32 @has_changes(ptr noundef readonly %0, ptr noundef readonly %1, ptr readnone captures(none) %2, ptr noundef %3, ptr noundef %4) #0 {
  %6 = alloca %struct.regmatch_t, align 4
  %7 = alloca %struct.kwsmatch, align 8
  %8 = alloca %struct.regmatch_t, align 4
  %9 = alloca %struct.kwsmatch, align 8
  %.not = icmp eq ptr %0, null
  br i1 %.not, label %contains.exit, label %10

10:                                               ; preds = %5
  %.val = load ptr, ptr %0, align 8, !tbaa !49
  %11 = getelementptr i8, ptr %0, i64 8
  %.val12 = load i64, ptr %11, align 8, !tbaa !51
  %.not.i = icmp eq ptr %3, null
  br i1 %.not.i, label %.preheader.i, label %21

.preheader.i:                                     ; preds = %10
  %.not5926.i = icmp eq i64 %.val12, 0
  br i1 %.not5926.i, label %contains.exit.thread, label %.lr.ph30.i

.lr.ph30.i:                                       ; preds = %.preheader.i
  %12 = getelementptr inbounds nuw i8, ptr %9, i64 16
  br label %.lr.ph30.split.us.i

.lr.ph30.split.us.i:                              ; preds = %15, %.lr.ph30.i
  %.24129.us.i = phi ptr [ %19, %15 ], [ %.val, %.lr.ph30.i ]
  %.24528.us.i = phi i64 [ %20, %15 ], [ %.val12, %.lr.ph30.i ]
  %.35027.us.i = phi i32 [ %16, %15 ], [ 0, %.lr.ph30.i ]
  call void @llvm.lifetime.start.p0(i64 24, ptr nonnull %9) #8
  %13 = call i64 @kwsexec(ptr noundef %4, ptr noundef %.24129.us.i, i64 noundef %.24528.us.i, ptr noundef nonnull %9) #8
  %14 = icmp eq i64 %13, -1
  br i1 %14, label %.thread9.i, label %15

15:                                               ; preds = %.lr.ph30.split.us.i
  %16 = add i32 %.35027.us.i, 1
  %17 = load i64, ptr %12, align 8, !tbaa !52
  %18 = add i64 %17, %13
  %19 = getelementptr inbounds nuw i8, ptr %.24129.us.i, i64 %18
  %20 = sub i64 %.24528.us.i, %18
  call void @llvm.lifetime.end.p0(i64 24, ptr nonnull %9) #8
  %.not59.us.i = icmp eq i64 %20, 0
  br i1 %.not59.us.i, label %contains.exit, label %.lr.ph30.split.us.i

21:                                               ; preds = %10
  call void @llvm.lifetime.start.p0(i64 8, ptr nonnull %8) #8
  %22 = getelementptr inbounds nuw i8, ptr %8, i64 4
  %.not61.us19.i = icmp eq i64 %.val12, 0
  br i1 %.not61.us19.i, label %.critedge.thread.i, label %.lr.ph.i

.lr.ph.i:                                         ; preds = %21, %29
  %.038.us23.i = phi i32 [ 5, %29 ], [ 4, %21 ]
  %.039.us22.i = phi ptr [ %.140.us.i, %29 ], [ %.val, %21 ]
  %.043.us21.i = phi i64 [ %.144.us.i, %29 ], [ %.val12, %21 ]
  %.047.us20.i = phi i32 [ %35, %29 ], [ 0, %21 ]
  store i32 0, ptr %8, align 4, !tbaa !53
  %23 = trunc i64 %.043.us21.i to i32
  store i32 %23, ptr %22, align 4, !tbaa !55
  %24 = call i32 @regexec(ptr noundef nonnull %3, ptr noundef %.039.us22.i, i64 noundef 1, ptr noundef nonnull %8, i32 noundef %.038.us23.i) #8
  %.not62.us.i = icmp eq i32 %24, 0
  br i1 %.not62.us.i, label %25, label %.critedge.thread.i

25:                                               ; preds = %.lr.ph.i
  %26 = load i32, ptr %22, align 4, !tbaa !55
  %27 = sext i32 %26 to i64
  %.not63.us.i = icmp eq i64 %.043.us21.i, %27
  br i1 %.not63.us.i, label %.thread44.i, label %29

.thread44.i:                                      ; preds = %25
  %28 = add i32 %.047.us20.i, 1
  br label %.critedge.thread.i

29:                                               ; preds = %25
  %30 = sub i64 %.043.us21.i, %27
  %31 = getelementptr inbounds i8, ptr %.039.us22.i, i64 %27
  %32 = load i32, ptr %8, align 4, !tbaa !53
  %33 = icmp eq i32 %32, %26
  %34 = sext i1 %33 to i64
  %.144.us.i = add i64 %30, %34
  %.140.us.idx.i = zext i1 %33 to i64
  %.140.us.i = getelementptr inbounds nuw i8, ptr %31, i64 %.140.us.idx.i
  %35 = add i32 %.047.us20.i, 1
  %.not61.us.i = icmp eq i64 %.144.us.i, 0
  br i1 %.not61.us.i, label %.critedge.thread.i, label %.lr.ph.i

.critedge.thread.i:                               ; preds = %29, %.lr.ph.i, %.thread44.i, %21
  %.us-phi.i = phi i32 [ 0, %21 ], [ %28, %.thread44.i ], [ %35, %29 ], [ %.047.us20.i, %.lr.ph.i ]
  call void @llvm.lifetime.end.p0(i64 8, ptr nonnull %8) #8
  br label %contains.exit

.thread9.i:                                       ; preds = %.lr.ph30.split.us.i
  call void @llvm.lifetime.end.p0(i64 24, ptr nonnull %9) #8
  br label %contains.exit

contains.exit:                                    ; preds = %15, %.thread9.i, %.critedge.thread.i, %5
  %36 = phi i32 [ 0, %5 ], [ %.us-phi.i, %.critedge.thread.i ], [ %.35027.us.i, %.thread9.i ], [ %16, %15 ]
  %.not11 = icmp eq ptr %1, null
  br i1 %.not11, label %contains.exit41, label %37

contains.exit.thread:                             ; preds = %.preheader.i
  %.not1142 = icmp eq ptr %1, null
  br i1 %.not1142, label %contains.exit41, label %.preheader.i32.thread

37:                                               ; preds = %contains.exit
  %38 = add i32 %36, 1
  %.val13 = load ptr, ptr %1, align 8, !tbaa !49
  %39 = getelementptr i8, ptr %1, i64 8
  %.val14 = load i64, ptr %39, align 8, !tbaa !51
  %.not.i15 = icmp eq ptr %3, null
  br i1 %.not.i15, label %.preheader.i32, label %54

.preheader.i32:                                   ; preds = %37
  %.not5926.i33 = icmp eq i64 %.val14, 0
  br i1 %.not5926.i33, label %contains.exit41, label %.lr.ph30.i34

.preheader.i32.thread:                            ; preds = %contains.exit.thread
  %40 = getelementptr i8, ptr %1, i64 8
  %.val1444 = load i64, ptr %40, align 8, !tbaa !51
  %.not5926.i3376 = icmp eq i64 %.val1444, 0
  br i1 %.not5926.i3376, label %contains.exit41, label %.lr.ph30.i34.thread

.lr.ph30.i34.thread:                              ; preds = %.preheader.i32.thread
  %.val1343 = load ptr, ptr %1, align 8, !tbaa !49
  %41 = getelementptr inbounds nuw i8, ptr %7, i64 16
  br label %.lr.ph30.split.i.preheader

.lr.ph30.i34:                                     ; preds = %.preheader.i32
  %.not60.not.i = icmp eq i32 %38, 0
  %42 = getelementptr inbounds nuw i8, ptr %7, i64 16
  br i1 %.not60.not.i, label %.lr.ph30.split.us.i36, label %.lr.ph30.split.i.preheader

.lr.ph30.split.i.preheader:                       ; preds = %.lr.ph30.i34.thread, %.lr.ph30.i34
  %43 = phi ptr [ %41, %.lr.ph30.i34.thread ], [ %42, %.lr.ph30.i34 ]
  %.val14477783 = phi i64 [ %.val1444, %.lr.ph30.i34.thread ], [ %.val14, %.lr.ph30.i34 ]
  %.val13467882 = phi ptr [ %.val1343, %.lr.ph30.i34.thread ], [ %.val13, %.lr.ph30.i34 ]
  %44 = phi i32 [ 1, %.lr.ph30.i34.thread ], [ %38, %.lr.ph30.i34 ]
  %45 = phi i32 [ 0, %.lr.ph30.i34.thread ], [ %36, %.lr.ph30.i34 ]
  br label %.lr.ph30.split.i

.lr.ph30.split.us.i36:                            ; preds = %.lr.ph30.i34, %48
  %.24129.us.i37 = phi ptr [ %52, %48 ], [ %.val13, %.lr.ph30.i34 ]
  %.24528.us.i38 = phi i64 [ %53, %48 ], [ %.val14, %.lr.ph30.i34 ]
  %.35027.us.i39 = phi i32 [ %49, %48 ], [ 0, %.lr.ph30.i34 ]
  call void @llvm.lifetime.start.p0(i64 24, ptr nonnull %7) #8
  %46 = call i64 @kwsexec(ptr noundef %4, ptr noundef %.24129.us.i37, i64 noundef %.24528.us.i38, ptr noundef nonnull %7) #8
  %47 = icmp eq i64 %46, -1
  br i1 %47, label %.thread9.i35, label %48

48:                                               ; preds = %.lr.ph30.split.us.i36
  %49 = add i32 %.35027.us.i39, 1
  %50 = load i64, ptr %42, align 8, !tbaa !52
  %51 = add i64 %50, %46
  %52 = getelementptr inbounds nuw i8, ptr %.24129.us.i37, i64 %51
  %53 = sub i64 %.24528.us.i38, %51
  call void @llvm.lifetime.end.p0(i64 24, ptr nonnull %7) #8
  %.not59.us.i40 = icmp eq i64 %53, 0
  br i1 %.not59.us.i40, label %contains.exit41, label %.lr.ph30.split.us.i36

54:                                               ; preds = %37
  call void @llvm.lifetime.start.p0(i64 8, ptr nonnull %6) #8
  %55 = getelementptr inbounds nuw i8, ptr %6, i64 4
  %.not64.not.i = icmp eq i32 %38, 0
  br i1 %.not64.not.i, label %.split.us.i, label %.split.i

.split.us.i:                                      ; preds = %54
  %.not61.us19.i19 = icmp eq i64 %.val14, 0
  br i1 %.not61.us19.i19, label %.critedge.thread.i16, label %.lr.ph.i20

.lr.ph.i20:                                       ; preds = %.split.us.i, %62
  %.038.us23.i21 = phi i32 [ 5, %62 ], [ 4, %.split.us.i ]
  %.039.us22.i22 = phi ptr [ %.140.us.i29, %62 ], [ %.val13, %.split.us.i ]
  %.043.us21.i23 = phi i64 [ %.144.us.i27, %62 ], [ %.val14, %.split.us.i ]
  %.047.us20.i24 = phi i32 [ %68, %62 ], [ 0, %.split.us.i ]
  store i32 0, ptr %6, align 4, !tbaa !53
  %56 = trunc i64 %.043.us21.i23 to i32
  store i32 %56, ptr %55, align 4, !tbaa !55
  %57 = call i32 @regexec(ptr noundef nonnull %3, ptr noundef %.039.us22.i22, i64 noundef 1, ptr noundef nonnull %6, i32 noundef %.038.us23.i21) #8
  %.not62.us.i25 = icmp eq i32 %57, 0
  br i1 %.not62.us.i25, label %58, label %.critedge.thread.i16

58:                                               ; preds = %.lr.ph.i20
  %59 = load i32, ptr %55, align 4, !tbaa !55
  %60 = sext i32 %59 to i64
  %.not63.us.i26 = icmp eq i64 %.043.us21.i23, %60
  br i1 %.not63.us.i26, label %.thread44.i31, label %62

.thread44.i31:                                    ; preds = %58
  %61 = add i32 %.047.us20.i24, 1
  br label %.critedge.thread.i16

62:                                               ; preds = %58
  %63 = sub i64 %.043.us21.i23, %60
  %64 = getelementptr inbounds i8, ptr %.039.us22.i22, i64 %60
  %65 = load i32, ptr %6, align 4, !tbaa !53
  %66 = icmp eq i32 %65, %59
  %67 = sext i1 %66 to i64
  %.144.us.i27 = add i64 %63, %67
  %.140.us.idx.i28 = zext i1 %66 to i64
  %.140.us.i29 = getelementptr inbounds nuw i8, ptr %64, i64 %.140.us.idx.i28
  %68 = add i32 %.047.us20.i24, 1
  %.not61.us.i30 = icmp eq i64 %.144.us.i27, 0
  br i1 %.not61.us.i30, label %.critedge.thread.i16, label %.lr.ph.i20

.split.i:                                         ; preds = %54, %83
  %.047.i = phi i32 [ %84, %83 ], [ 0, %54 ]
  %.043.i = phi i64 [ %.144.i, %83 ], [ %.val14, %54 ]
  %.039.i = phi ptr [ %.140.i, %83 ], [ %.val13, %54 ]
  %.038.i = phi i32 [ 5, %83 ], [ 4, %54 ]
  %.not61.i = icmp eq i64 %.043.i, 0
  br i1 %.not61.i, label %.critedge.thread.i16, label %69

69:                                               ; preds = %.split.i
  store i32 0, ptr %6, align 4, !tbaa !53
  %70 = trunc i64 %.043.i to i32
  store i32 %70, ptr %55, align 4, !tbaa !55
  %71 = call i32 @regexec(ptr noundef nonnull %3, ptr noundef %.039.i, i64 noundef 1, ptr noundef nonnull %6, i32 noundef %.038.i) #8
  %.not62.i = icmp eq i32 %71, 0
  br i1 %.not62.i, label %72, label %.critedge.thread.i16

72:                                               ; preds = %69
  %73 = load i32, ptr %55, align 4, !tbaa !55
  %74 = sext i32 %73 to i64
  %75 = getelementptr inbounds i8, ptr %.039.i, i64 %74
  %76 = sub i64 %.043.i, %74
  %.not63.i = icmp eq i64 %76, 0
  br i1 %.not63.i, label %83, label %77

77:                                               ; preds = %72
  %78 = load i32, ptr %6, align 4, !tbaa !53
  %79 = icmp eq i32 %78, %73
  br i1 %79, label %80, label %83

80:                                               ; preds = %77
  %81 = getelementptr inbounds nuw i8, ptr %75, i64 1
  %82 = add i64 %76, -1
  br label %83

83:                                               ; preds = %80, %77, %72
  %.144.i = phi i64 [ %82, %80 ], [ %76, %77 ], [ 0, %72 ]
  %.140.i = phi ptr [ %81, %80 ], [ %75, %77 ], [ %75, %72 ]
  %84 = add nuw i32 %.047.i, 1
  %85 = icmp eq i32 %.047.i, %36
  br i1 %85, label %.critedge.i, label %.split.i, !llvm.loop !56

.critedge.thread.i16:                             ; preds = %69, %.split.i, %62, %.lr.ph.i20, %.thread44.i31, %.split.us.i
  %.us-phi.i17 = phi i32 [ 0, %.split.us.i ], [ %61, %.thread44.i31 ], [ %68, %62 ], [ %.047.us20.i24, %.lr.ph.i20 ], [ %.047.i, %.split.i ], [ %.047.i, %69 ]
  call void @llvm.lifetime.end.p0(i64 8, ptr nonnull %6) #8
  br label %contains.exit41

.critedge.i:                                      ; preds = %83
  call void @llvm.lifetime.end.p0(i64 8, ptr nonnull %6) #8
  br label %contains.exit41

.lr.ph30.split.i:                                 ; preds = %.lr.ph30.split.i.preheader, %92
  %.24129.i = phi ptr [ %95, %92 ], [ %.val13467882, %.lr.ph30.split.i.preheader ]
  %.24528.i = phi i64 [ %96, %92 ], [ %.val14477783, %.lr.ph30.split.i.preheader ]
  %.35027.i = phi i32 [ %90, %92 ], [ 0, %.lr.ph30.split.i.preheader ]
  call void @llvm.lifetime.start.p0(i64 24, ptr nonnull %7) #8
  %86 = call i64 @kwsexec(ptr noundef %4, ptr noundef %.24129.i, i64 noundef %.24528.i, ptr noundef nonnull %7) #8
  %87 = icmp eq i64 %86, -1
  br i1 %87, label %.thread9.i35, label %89

.thread9.i35:                                     ; preds = %.lr.ph30.split.i, %.lr.ph30.split.us.i36
  %88 = phi i32 [ %36, %.lr.ph30.split.us.i36 ], [ %45, %.lr.ph30.split.i ]
  %.us-phi32.i = phi i32 [ %.35027.us.i39, %.lr.ph30.split.us.i36 ], [ %.35027.i, %.lr.ph30.split.i ]
  call void @llvm.lifetime.end.p0(i64 24, ptr nonnull %7) #8
  br label %contains.exit41

89:                                               ; preds = %.lr.ph30.split.i
  %90 = add nuw i32 %.35027.i, 1
  %91 = icmp eq i32 %90, %44
  br i1 %91, label %.thread.i, label %92

.thread.i:                                        ; preds = %89
  call void @llvm.lifetime.end.p0(i64 24, ptr nonnull %7) #8
  br label %contains.exit41

92:                                               ; preds = %89
  %93 = load i64, ptr %43, align 8, !tbaa !52
  %94 = add i64 %93, %86
  %95 = getelementptr inbounds nuw i8, ptr %.24129.i, i64 %94
  %96 = sub i64 %.24528.i, %94
  call void @llvm.lifetime.end.p0(i64 24, ptr nonnull %7) #8
  %.not59.i = icmp eq i64 %96, 0
  br i1 %.not59.i, label %contains.exit41, label %.lr.ph30.split.i

contains.exit41:                                  ; preds = %92, %48, %.preheader.i32.thread, %.thread.i, %.thread9.i35, %.critedge.i, %.critedge.thread.i16, %.preheader.i32, %contains.exit.thread, %contains.exit
  %97 = phi i32 [ %36, %contains.exit ], [ 0, %contains.exit.thread ], [ %36, %.critedge.i ], [ %45, %.thread.i ], [ %36, %.critedge.thread.i16 ], [ %88, %.thread9.i35 ], [ %36, %.preheader.i32 ], [ 0, %.preheader.i32.thread ], [ %36, %48 ], [ %45, %92 ]
  %98 = phi i32 [ 0, %contains.exit ], [ 0, %contains.exit.thread ], [ %38, %.critedge.i ], [ %44, %.thread.i ], [ %.us-phi.i17, %.critedge.thread.i16 ], [ %.us-phi32.i, %.thread9.i35 ], [ 0, %.preheader.i32 ], [ 0, %.preheader.i32.thread ], [ %49, %48 ], [ %90, %92 ]
  %99 = icmp ne i32 %97, %98
  %100 = zext i1 %99 to i32
  ret i32 %100
}